; Function Attrs: mustprogress nofree norecurse nosync nounwind memory(readwrite, inaccessiblemem: none) uwtable
define internal void @_ZN2cvL10inRange16sEPKsmS1_mS1_mPhmNS_5Size_IiEE(ptr nocapture noundef readonly %0, i64 noundef %1, ptr nocapture noundef readonly %2, i64 noundef %3, ptr nocapture noundef readonly %4, i64 noundef %5, ptr nocapture noundef writeonly %6, i64 noundef %7, i64 %8) #13 {
  %10 = lshr i64 %1, 1
  %11 = lshr i64 %3, 1
  %12 = lshr i64 %5, 1
  %.not34.i = icmp ugt i64 %8, 4294967295
  %.sroa.0.0.extract.trunc.i = trunc i64 %8 to i32
  %13 = icmp sgt i32 %.sroa.0.0.extract.trunc.i, 0
  %or.cond.i = and i1 %.not34.i, %13
  br i1 %or.cond.i, label %.preheader.us.preheader.i, label %_ZN2cvL8inRange_IsEEvPKT_mS3_mS3_mPhmNS_5Size_IiEE.exit

.preheader.us.preheader.i:                        ; preds = %9
  %.sroa.3.0.extract.shift.i = lshr i64 %8, 32
  %.sroa.3.0.extract.trunc.i = trunc nuw i64 %.sroa.3.0.extract.shift.i to i32
  %wide.trip.count.i = and i64 %8, 2147483647
  br label %.preheader.us.i

.preheader.us.i:                                  ; preds = %._crit_edge.us.i, %.preheader.us.preheader.i
  %.in.i = phi i32 [ %27, %._crit_edge.us.i ], [ %.sroa.3.0.extract.trunc.i, %.preheader.us.preheader.i ]
  %.02738.us.i = phi ptr [ %31, %._crit_edge.us.i ], [ %6, %.preheader.us.preheader.i ]
  %.02837.us.i = phi ptr [ %30, %._crit_edge.us.i ], [ %4, %.preheader.us.preheader.i ]
  %.02936.us.i = phi ptr [ %29, %._crit_edge.us.i ], [ %2, %.preheader.us.preheader.i ]
  %.03035.us.i = phi ptr [ %28, %._crit_edge.us.i ], [ %0, %.preheader.us.preheader.i ]
  br label %14

14:                                               ; preds = %23, %.preheader.us.i
  %indvars.iv.i = phi i64 [ 0, %.preheader.us.i ], [ %indvars.iv.next.i, %23 ]
  %15 = getelementptr inbounds i16, ptr %.02936.us.i, i64 %indvars.iv.i
  %16 = load i16, ptr %15, align 2
  %17 = getelementptr inbounds i16, ptr %.03035.us.i, i64 %indvars.iv.i
  %18 = load i16, ptr %17, align 2
  %.not32.us.i = icmp sgt i16 %16, %18
  br i1 %.not32.us.i, label %23, label %19

19:                                               ; preds = %14
  %20 = getelementptr inbounds i16, ptr %.02837.us.i, i64 %indvars.iv.i
  %21 = load i16, ptr %20, align 2
  %22 = icmp sle i16 %18, %21
  br label %23

23:                                               ; preds = %19, %14
  %24 = phi i1 [ false, %14 ], [ %22, %19 ]
  %25 = sext i1 %24 to i8
  %26 = getelementptr inbounds i8, ptr %.02738.us.i, i64 %indvars.iv.i
  store i8 %25, ptr %26, align 1
  %indvars.iv.next.i = add nuw nsw i64 %indvars.iv.i, 1
  %exitcond.not.i = icmp eq i64 %indvars.iv.next.i, %wide.trip.count.i
  br i1 %exitcond.not.i, label %._crit_edge.us.i, label %14, !llvm.loop !135

._crit_edge.us.i:                                 ; preds = %23
  %27 = add nsw i32 %.in.i, -1
  %28 = getelementptr inbounds i16, ptr %.03035.us.i, i64 %10
  %29 = getelementptr inbounds i16, ptr %.02936.us.i, i64 %11
  %30 = getelementptr inbounds i16, ptr %.02837.us.i, i64 %12
  %31 = getelementptr inbounds i8, ptr %.02738.us.i, i64 %7
  %.not.us.i = icmp eq i32 %27, 0
  br i1 %.not.us.i, label %_ZN2cvL8inRange_IsEEvPKT_mS3_mS3_mPhmNS_5Size_IiEE.exit, label %.preheader.us.i, !llvm.loop !136

_ZN2cvL8inRange_IsEEvPKT_mS3_mS3_mPhmNS_5Size_IiEE.exit: ; preds = %._crit_edge.us.i, %9
  ret void
}